target datalayout = "e-m:e-p270:32:32-p271:32:32-p272:64:64-i64:64-i128:128-f80:128-n8:16:32:64-S128"
target triple = "x86_64-pc-linux-gnu"

; Function Attrs: nounwind uwtable
define i32 @wc_DeleteRsaKey(ptr noundef %0, ptr noundef %1) #0 {
  %3 = alloca i32, align 4
  %4 = alloca ptr, align 8
  %5 = alloca ptr, align 8
  %6 = alloca ptr, align 8
  store ptr %0, ptr %4, align 8, !tbaa !11
  store ptr %1, ptr %5, align 8, !tbaa !25
  %7 = load ptr, ptr %4, align 8, !tbaa !11
  %8 = icmp eq ptr %7, null
  br i1 %8, label %9, label %10

9:                                                ; preds = %2
  store i32 -173, ptr %3, align 4
  br label %26

10:                                               ; preds = %2
  %11 = load ptr, ptr %4, align 8, !tbaa !11
  %12 = call i32 @wc_FreeRsaKey(ptr noundef %11)
  br label %13

13:                                               ; preds = %10
  call void @llvm.lifetime.start.p0(i64 8, ptr %6) #8
  %14 = load ptr, ptr %4, align 8, !tbaa !11
  store ptr %14, ptr %6, align 8, !tbaa !3
  %15 = load ptr, ptr %6, align 8, !tbaa !3
  %16 = icmp ne ptr %15, null
  br i1 %16, label %17, label %19

17:                                               ; preds = %13
  %18 = load ptr, ptr %6, align 8, !tbaa !3
  call void @wolfSSL_Free(ptr noundef %18)
  br label %19

19:                                               ; preds = %17, %13
  call void @llvm.lifetime.end.p0(i64 8, ptr %6) #8
  br label %20

20:                                               ; preds = %19
  %21 = load ptr, ptr %5, align 8, !tbaa !25
  %22 = icmp ne ptr %21, null
  br i1 %22, label %23, label %25

23:                                               ; preds = %20
  %24 = load ptr, ptr %5, align 8, !tbaa !25
  store ptr null, ptr %24, align 8, !tbaa !11
  br label %25

25:                                               ; preds = %23, %20
  store i32 0, ptr %3, align 4
  br label %26

26:                                               ; preds = %25, %9
  %27 = load i32, ptr %3, align 4
  ret i32 %27
}