; Function Attrs: nounwind uwtable
define range(i32 -173, 1) i32 @wc_DeleteRsaKey(ptr noundef %0, ptr noundef writeonly captures(address_is_null) %1) local_unnamed_addr #0 {
  %3 = icmp eq ptr %0, null
  br i1 %3, label %7, label %4

4:                                                ; preds = %2
  %5 = tail call i32 @wc_FreeRsaKey(ptr noundef nonnull %0)
  tail call void @wolfSSL_Free(ptr noundef nonnull %0) #12
  %.not = icmp eq ptr %1, null
  br i1 %.not, label %7, label %6

6:                                                ; preds = %4
  store ptr null, ptr %1, align 8, !tbaa !17
  br label %7

7:                                                ; preds = %4, %6, %2
  %.0 = phi i32 [ -173, %2 ], [ 0, %6 ], [ 0, %4 ]
  ret i32 %.0
}